; ModuleID = '9/369.c'
source_filename = "9/369.c"
target datalayout = "e-m:e-p270:32:32-p271:32:32-p272:64:64-i64:64-f80:128-n8:16:32:64-S128"
target triple = "x86_64-pc-linux-gnu"

%struct.person = type { [11 x i8], i32 }

@.str = private unnamed_addr constant [3 x i8] c"%d\00", align 1
@.str.1 = private unnamed_addr constant [6 x i8] c"%s %d\00", align 1
@pe = common dso_local global [100 x %struct.person] zeroinitializer, align 16
@t = common dso_local global %struct.person zeroinitializer, align 4
@.str.2 = private unnamed_addr constant [4 x i8] c"%s\0A\00", align 1

; Function Attrs: noinline nounwind uwtable
define dso_local i32 @main() #0 {
  %1 = alloca i32, align 4
  %2 = alloca i32, align 4
  %3 = alloca i32, align 4
  %4 = alloca i32, align 4
  %5 = alloca i32, align 4
  store i32 0, i32* %1, align 4
  %6 = call i32 (i8*, ...) @__isoc99_scanf(i8* getelementptr inbounds ([3 x i8], [3 x i8]* @.str, i64 0, i64 0), i32* %2)
  store i32 0, i32* %3, align 4
  br label %7

7:                                                ; preds = %22, %0
  %8 = load i32, i32* %3, align 4
  %9 = load i32, i32* %2, align 4
  %10 = icmp slt i32 %8, %9
  br i1 %10, label %11, label %25

11:                                               ; preds = %7
  %12 = load i32, i32* %3, align 4
  %13 = sext i32 %12 to i64
  %14 = getelementptr inbounds [100 x %struct.person], [100 x %struct.person]* @pe, i64 0, i64 %13
  %15 = getelementptr inbounds %struct.person, %struct.person* %14, i32 0, i32 0
  %16 = getelementptr inbounds [11 x i8], [11 x i8]* %15, i64 0, i64 0
  %17 = load i32, i32* %3, align 4
  %18 = sext i32 %17 to i64
  %19 = getelementptr inbounds [100 x %struct.person], [100 x %struct.person]* @pe, i64 0, i64 %18
  %20 = getelementptr inbounds %struct.person, %struct.person* %19, i32 0, i32 1
  %21 = call i32 (i8*, ...) @__isoc99_scanf(i8* getelementptr inbounds ([6 x i8], [6 x i8]* @.str.1, i64 0, i64 0), i8* %16, i32* %20)
  br label %22

22:                                               ; preds = %11
  %23 = load i32, i32* %3, align 4
  %24 = add nsw i32 %23, 1
  store i32 %24, i32* %3, align 4
  br label %7

25:                                               ; preds = %7
  store i32 0, i32* %5, align 4
  br label %26

26:                                               ; preds = %83, %25
  %27 = load i32, i32* %5, align 4
  %28 = load i32, i32* %2, align 4
  %29 = icmp slt i32 %27, %28
  br i1 %29, label %30, label %86

30:                                               ; preds = %26
  store i32 0, i32* %3, align 4
  br label %31

31:                                               ; preds = %79, %30
  %32 = load i32, i32* %3, align 4
  %33 = load i32, i32* %2, align 4
  %34 = load i32, i32* %5, align 4
  %35 = sub nsw i32 %33, %34
  %36 = sub nsw i32 %35, 1
  %37 = icmp slt i32 %32, %36
  br i1 %37, label %38, label %82

38:                                               ; preds = %31
  %39 = load i32, i32* %3, align 4
  %40 = add nsw i32 %39, 1
  %41 = sext i32 %40 to i64
  %42 = getelementptr inbounds [100 x %struct.person], [100 x %struct.person]* @pe, i64 0, i64 %41
  %43 = getelementptr inbounds %struct.person, %struct.person* %42, i32 0, i32 1
  %44 = load i32, i32* %43, align 4
  %45 = icmp sge i32 %44, 60
  br i1 %45, label %46, label %78

46:                                               ; preds = %38
  %47 = load i32, i32* %3, align 4
  %48 = sext i32 %47 to i64
  %49 = getelementptr inbounds [100 x %struct.person], [100 x %struct.person]* @pe, i64 0, i64 %48
  %50 = getelementptr inbounds %struct.person, %struct.person* %49, i32 0, i32 1
  %51 = load i32, i32* %50, align 4
  %52 = load i32, i32* %3, align 4
  %53 = add nsw i32 %52, 1
  %54 = sext i32 %53 to i64
  %55 = getelementptr inbounds [100 x %struct.person], [100 x %struct.person]* @pe, i64 0, i64 %54
  %56 = getelementptr inbounds %struct.person, %struct.person* %55, i32 0, i32 1
  %57 = load i32, i32* %56, align 4
  %58 = icmp slt i32 %51, %57
  br i1 %58, label %59, label %78

59:                                               ; preds = %46
  %60 = load i32, i32* %3, align 4
  %61 = sext i32 %60 to i64
  %62 = getelementptr inbounds [100 x %struct.person], [100 x %struct.person]* @pe, i64 0, i64 %61
  %63 = bitcast %struct.person* %62 to i8*
  call void @llvm.memcpy.p0i8.p0i8.i64(i8* align 4 getelementptr inbounds (%struct.person, %struct.person* @t, i32 0, i32 0, i32 0), i8* align 16 %63, i64 16, i1 false)
  %64 = load i32, i32* %3, align 4
  %65 = sext i32 %64 to i64
  %66 = getelementptr inbounds [100 x %struct.person], [100 x %struct.person]* @pe, i64 0, i64 %65
  %67 = load i32, i32* %3, align 4
  %68 = add nsw i32 %67, 1
  %69 = sext i32 %68 to i64
  %70 = getelementptr inbounds [100 x %struct.person], [100 x %struct.person]* @pe, i64 0, i64 %69
  %71 = bitcast %struct.person* %66 to i8*
  %72 = bitcast %struct.person* %70 to i8*
  call void @llvm.memcpy.p0i8.p0i8.i64(i8* align 16 %71, i8* align 16 %72, i64 16, i1 false)
  %73 = load i32, i32* %3, align 4
  %74 = add nsw i32 %73, 1
  %75 = sext i32 %74 to i64
  %76 = getelementptr inbounds [100 x %struct.person], [100 x %struct.person]* @pe, i64 0, i64 %75
  %77 = bitcast %struct.person* %76 to i8*
  call void @llvm.memcpy.p0i8.p0i8.i64(i8* align 16 %77, i8* align 4 getelementptr inbounds (%struct.person, %struct.person* @t, i32 0, i32 0, i32 0), i64 16, i1 false)
  br label %78

78:                                               ; preds = %59, %46, %38
  br label %79

79:                                               ; preds = %78
  %80 = load i32, i32* %3, align 4
  %81 = add nsw i32 %80, 1
  store i32 %81, i32* %3, align 4
  br label %31

82:                                               ; preds = %31
  br label %83

83:                                               ; preds = %82
  %84 = load i32, i32* %5, align 4
  %85 = add nsw i32 %84, 1
  store i32 %85, i32* %5, align 4
  br label %26

86:                                               ; preds = %26
  store i32 0, i32* %3, align 4
  br label %87

87:                                               ; preds = %98, %86
  %88 = load i32, i32* %3, align 4
  %89 = load i32, i32* %2, align 4
  %90 = icmp slt i32 %88, %89
  br i1 %90, label %91, label %101

91:                                               ; preds = %87
  %92 = load i32, i32* %3, align 4
  %93 = sext i32 %92 to i64
  %94 = getelementptr inbounds [100 x %struct.person], [100 x %struct.person]* @pe, i64 0, i64 %93
  %95 = getelementptr inbounds %struct.person, %struct.person* %94, i32 0, i32 0
  %96 = getelementptr inbounds [11 x i8], [11 x i8]* %95, i64 0, i64 0
  %97 = call i32 (i8*, ...) @printf(i8* getelementptr inbounds ([4 x i8], [4 x i8]* @.str.2, i64 0, i64 0), i8* %96)
  br label %98

98:                                               ; preds = %91
  %99 = load i32, i32* %3, align 4
  %100 = add nsw i32 %99, 1
  store i32 %100, i32* %3, align 4
  br label %87

101:                                              ; preds = %87
  ret i32 0
}

declare dso_local i32 @__isoc99_scanf(i8*, ...) #1

; Function Attrs: argmemonly nounwind willreturn
declare void @llvm.memcpy.p0i8.p0i8.i64(i8* noalias nocapture writeonly, i8* noalias nocapture readonly, i64, i1 immarg) #2

declare dso_local i32 @printf(i8*, ...) #1


!llvm.module.flags = !{!0}
!llvm.ident = !{!1}

!0 = !{i32 1, !"wchar_size", i32 4}
!1 = !{!"clang version 10.0.0-4ubuntu1 "}
